target datalayout = "e-m:e-p270:32:32-p271:32:32-p272:64:64-i64:64-i128:128-f80:128-n8:16:32:64-S128"
target triple = "x86_64-unknown-linux-gnu"

%"class.node::tracing::InternalTraceBuffer" = type { %"class.node::MutexBase", i8, i64, ptr, %"class.std::vector", i64, i32, i32 }
%"class.node::MutexBase" = type { %union.pthread_mutex_t }
%union.pthread_mutex_t = type { %struct.__pthread_mutex_s }
%struct.__pthread_mutex_s = type { i32, i32, i32, i32, i32, i16, i16, %struct.__pthread_internal_list }
%struct.__pthread_internal_list = type { ptr, ptr }
%"class.std::vector" = type { %"struct.std::_Vector_base" }
%"struct.std::_Vector_base" = type { %"struct.std::_Vector_base<std::unique_ptr<v8::platform::tracing::TraceBufferChunk>, std::allocator<std::unique_ptr<v8::platform::tracing::TraceBufferChunk>>>::_Vector_impl" }
%"struct.std::_Vector_base<std::unique_ptr<v8::platform::tracing::TraceBufferChunk>, std::allocator<std::unique_ptr<v8::platform::tracing::TraceBufferChunk>>>::_Vector_impl" = type { %"struct.std::_Vector_base<std::unique_ptr<v8::platform::tracing::TraceBufferChunk>, std::allocator<std::unique_ptr<v8::platform::tracing::TraceBufferChunk>>>::_Vector_impl_data" }
%"struct.std::_Vector_base<std::unique_ptr<v8::platform::tracing::TraceBufferChunk>, std::allocator<std::unique_ptr<v8::platform::tracing::TraceBufferChunk>>>::_Vector_impl_data" = type { ptr, ptr, ptr }

; Function Attrs: mustprogress nounwind uwtable
define linkonce_odr dso_local noundef i64 @_ZNK4node7tracing19InternalTraceBuffer8CapacityEv(ptr noundef nonnull align 8 dereferenceable(104) %this) #0 comdat align 2 {
entry:
  %this.addr = alloca ptr, align 8
  store ptr %this, ptr %this.addr, align 8
  %this1 = load ptr, ptr %this.addr, align 8
  %max_chunks_ = getelementptr inbounds %"class.node::tracing::InternalTraceBuffer", ptr %this1, i32 0, i32 2
  %0 = load i64, ptr %max_chunks_, align 8
  %mul = mul i64 %0, 64
  ret i64 %mul
}

; Function Attrs: mustprogress nounwind uwtable
define dso_local void @_ZNK4node7tracing19InternalTraceBuffer13ExtractHandleEmPjPmS2_S3_(ptr noundef nonnull align 8 dereferenceable(104) %this, i64 noundef %handle, ptr noundef %buffer_id, ptr noundef %chunk_index, ptr noundef %chunk_seq, ptr noundef %event_index) #0 align 2 {
entry:
  %this.addr = alloca ptr, align 8
  %handle.addr = alloca i64, align 8
  %buffer_id.addr = alloca ptr, align 8
  %chunk_index.addr = alloca ptr, align 8
  %chunk_seq.addr = alloca ptr, align 8
  %event_index.addr = alloca ptr, align 8
  %indices = alloca i64, align 8
  store ptr %this, ptr %this.addr, align 8
  store i64 %handle, ptr %handle.addr, align 8
  store ptr %buffer_id, ptr %buffer_id.addr, align 8
  store ptr %chunk_index, ptr %chunk_index.addr, align 8
  store ptr %chunk_seq, ptr %chunk_seq.addr, align 8
  store ptr %event_index, ptr %event_index.addr, align 8
  %this1 = load ptr, ptr %this.addr, align 8
  %0 = load i64, ptr %handle.addr, align 8
  %and = and i64 %0, 1
  %conv = trunc i64 %and to i32
  %1 = load ptr, ptr %buffer_id.addr, align 8
  store i32 %conv, ptr %1, align 4
  %2 = load i64, ptr %handle.addr, align 8
  %shr = lshr i64 %2, 1
  store i64 %shr, ptr %handle.addr, align 8
  %3 = load i64, ptr %handle.addr, align 8
  %call = call noundef i64 @_ZNK4node7tracing19InternalTraceBuffer8CapacityEv(ptr noundef nonnull align 8 dereferenceable(104) %this1)
  %div = udiv i64 %3, %call
  %conv2 = trunc i64 %div to i32
  %4 = load ptr, ptr %chunk_seq.addr, align 8
  store i32 %conv2, ptr %4, align 4
  %5 = load i64, ptr %handle.addr, align 8
  %call3 = call noundef i64 @_ZNK4node7tracing19InternalTraceBuffer8CapacityEv(ptr noundef nonnull align 8 dereferenceable(104) %this1)
  %rem = urem i64 %5, %call3
  store i64 %rem, ptr %indices, align 8
  %6 = load i64, ptr %indices, align 8
  %div4 = udiv i64 %6, 64
  %7 = load ptr, ptr %chunk_index.addr, align 8
  store i64 %div4, ptr %7, align 8
  %8 = load i64, ptr %indices, align 8
  %rem5 = urem i64 %8, 64
  %9 = load ptr, ptr %event_index.addr, align 8
  store i64 %rem5, ptr %9, align 8
  ret void
}