; Function Attrs: mustprogress nofree norecurse nosync nounwind willreturn memory(argmem: readwrite) uwtable
define dso_local void @_ZNK4node7tracing19InternalTraceBuffer13ExtractHandleEmPjPmS2_S3_(ptr nocapture noundef nonnull readonly align 8 dereferenceable(104) %this, i64 noundef %handle, ptr nocapture noundef writeonly %buffer_id, ptr nocapture noundef writeonly %chunk_index, ptr nocapture noundef writeonly %chunk_seq, ptr nocapture noundef writeonly %event_index) local_unnamed_addr #3 align 2 {
entry:
  %0 = trunc i64 %handle to i32
  %conv = and i32 %0, 1
  store i32 %conv, ptr %buffer_id, align 4
  %shr = lshr i64 %handle, 1
  %max_chunks_.i = getelementptr inbounds i8, ptr %this, i64 48
  %1 = load i64, ptr %max_chunks_.i, align 8
  %mul.i = shl i64 %1, 6
  %div = udiv i64 %shr, %mul.i
  %conv2 = trunc i64 %div to i32
  store i32 %conv2, ptr %chunk_seq, align 4
  %2 = load i64, ptr %max_chunks_.i, align 8
  %mul.i7 = shl i64 %2, 6
  %rem = urem i64 %shr, %mul.i7
  %div45 = lshr i64 %rem, 6
  store i64 %div45, ptr %chunk_index, align 8
  %rem5 = and i64 %rem, 63
  store i64 %rem5, ptr %event_index, align 8
  ret void
}